; ModuleID = 'source-C-CXX/56/66.c'
source_filename = "source-C-CXX/56/66.c"
target datalayout = "e-m:e-p270:32:32-p271:32:32-p272:64:64-i64:64-f80:128-n8:16:32:64-S128"
target triple = "x86_64-pc-linux-gnu"

@.str = private unnamed_addr constant [3 x i8] c"%d\00", align 1
@.str.1 = private unnamed_addr constant [3 x i8] c"%s\00", align 1

; Function Attrs: nofree nounwind sspstrong uwtable
define dso_local void @main() local_unnamed_addr #0 {
  %1 = alloca i32, align 4
  %2 = alloca [100 x i8], align 16
  %3 = bitcast i32* %1 to i8*
  call void @llvm.lifetime.start.p0i8(i64 4, i8* nonnull %3) #5
  %4 = getelementptr inbounds [100 x i8], [100 x i8]* %2, i64 0, i64 0
  call void @llvm.lifetime.start.p0i8(i64 100, i8* nonnull %4) #5
  %5 = call i32 (i8*, ...) @__isoc99_scanf(i8* getelementptr inbounds ([3 x i8], [3 x i8]* @.str, i64 0, i64 0), i32* nonnull %1)
  %6 = load i32, i32* %1, align 4, !tbaa !5
  %7 = icmp sgt i32 %6, 0
  br i1 %7, label %8, label %46

8:                                                ; preds = %0, %41
  %9 = phi i32 [ %43, %41 ], [ 0, %0 ]
  %10 = call i32 (i8*, ...) @__isoc99_scanf(i8* getelementptr inbounds ([3 x i8], [3 x i8]* @.str.1, i64 0, i64 0), i8* nonnull %4)
  %11 = call i64 @strlen(i8* noundef nonnull %4) #6
  %12 = add i64 %11, -1
  %13 = getelementptr inbounds [100 x i8], [100 x i8]* %2, i64 0, i64 %12
  %14 = load i8, i8* %13, align 1, !tbaa !9
  %15 = icmp eq i8 %14, 103
  %16 = call i64 @strlen(i8* noundef nonnull %4) #6
  br i1 %15, label %19, label %17

17:                                               ; preds = %8
  %18 = icmp eq i64 %16, 2
  br i1 %18, label %41, label %31

19:                                               ; preds = %8
  %20 = icmp eq i64 %16, 3
  br i1 %20, label %41, label %21

21:                                               ; preds = %19, %21
  %22 = phi i64 [ %27, %21 ], [ 0, %19 ]
  %23 = getelementptr inbounds [100 x i8], [100 x i8]* %2, i64 0, i64 %22
  %24 = load i8, i8* %23, align 1, !tbaa !9
  %25 = sext i8 %24 to i32
  %26 = call i32 @putchar(i32 %25)
  %27 = add nuw i64 %22, 1
  %28 = call i64 @strlen(i8* noundef nonnull %4) #6
  %29 = add i64 %28, -3
  %30 = icmp ugt i64 %29, %27
  br i1 %30, label %21, label %41, !llvm.loop !10

31:                                               ; preds = %17, %31
  %32 = phi i64 [ %37, %31 ], [ 0, %17 ]
  %33 = getelementptr inbounds [100 x i8], [100 x i8]* %2, i64 0, i64 %32
  %34 = load i8, i8* %33, align 1, !tbaa !9
  %35 = sext i8 %34 to i32
  %36 = call i32 @putchar(i32 %35)
  %37 = add nuw i64 %32, 1
  %38 = call i64 @strlen(i8* noundef nonnull %4) #6
  %39 = add i64 %38, -2
  %40 = icmp ugt i64 %39, %37
  br i1 %40, label %31, label %41, !llvm.loop !12

41:                                               ; preds = %31, %21, %17, %19
  %42 = call i32 @putchar(i32 10)
  %43 = add nuw nsw i32 %9, 1
  %44 = load i32, i32* %1, align 4, !tbaa !5
  %45 = icmp slt i32 %43, %44
  br i1 %45, label %8, label %46, !llvm.loop !13

46:                                               ; preds = %41, %0
  call void @llvm.lifetime.end.p0i8(i64 100, i8* nonnull %4) #5
  call void @llvm.lifetime.end.p0i8(i64 4, i8* nonnull %3) #5
  ret void
}

; Function Attrs: argmemonly mustprogress nofree nosync nounwind willreturn
declare void @llvm.lifetime.start.p0i8(i64 immarg, i8* nocapture) #1

; Function Attrs: nofree nounwind
declare noundef i32 @__isoc99_scanf(i8* nocapture noundef readonly, ...) local_unnamed_addr #2

; Function Attrs: argmemonly mustprogress nofree nounwind readonly willreturn
declare i64 @strlen(i8* nocapture) local_unnamed_addr #3

; Function Attrs: argmemonly mustprogress nofree nosync nounwind willreturn
declare void @llvm.lifetime.end.p0i8(i64 immarg, i8* nocapture) #1

; Function Attrs: nofree nounwind
declare noundef i32 @putchar(i32 noundef) local_unnamed_addr #4


!llvm.module.flags = !{!0, !1, !2, !3}
!llvm.ident = !{!4}

!0 = !{i32 1, !"wchar_size", i32 4}
!1 = !{i32 7, !"PIC Level", i32 2}
!2 = !{i32 7, !"PIE Level", i32 2}
!3 = !{i32 7, !"uwtable", i32 1}
!4 = !{!"clang version 13.0.0"}
!5 = !{!6, !6, i64 0}
!6 = !{!"int", !7, i64 0}
!7 = !{!"omnipotent char", !8, i64 0}
!8 = !{!"Simple C/C++ TBAA"}
!9 = !{!7, !7, i64 0}
!10 = distinct !{!10, !11}
!11 = !{!"llvm.loop.mustprogress"}
!12 = distinct !{!12, !11}
!13 = distinct !{!13, !11}
